target datalayout = "e-m:e-p270:32:32-p271:32:32-p272:64:64-i64:64-i128:128-f80:128-n8:16:32:64-S128"
target triple = "x86_64-pc-linux-gnu"

%"class.ncnn::Mat" = type { ptr, ptr, i64, i32, ptr, i32, i32, i32, i32, i32, i64 }

; Function Attrs: mustprogress uwtable
define internal void @_ZN4ncnnL26padding_constant_pack8_avxERKNS_3MatERS0_iiiiRKDv8_f(ptr noundef nonnull align 8 dereferenceable(72) %0, ptr noundef nonnull align 8 dereferenceable(72) %1, i32 noundef %2, i32 noundef %3, i32 noundef %4, i32 noundef %5, ptr noundef nonnull align 32 dereferenceable(32) %6) #2 {
  %8 = alloca ptr, align 8
  %9 = alloca ptr, align 8
  %10 = alloca <8 x float>, align 32
  %11 = alloca ptr, align 8
  %12 = alloca <8 x float>, align 32
  %13 = alloca ptr, align 8
  %14 = alloca <8 x float>, align 32
  %15 = alloca ptr, align 8
  %16 = alloca <8 x float>, align 32
  %17 = alloca ptr, align 8
  %18 = alloca <8 x float>, align 32
  %19 = alloca ptr, align 8
  %20 = alloca ptr, align 8
  %21 = alloca ptr, align 8
  %22 = alloca ptr, align 8
  %23 = alloca i32, align 4
  %24 = alloca i32, align 4
  %25 = alloca i32, align 4
  %26 = alloca i32, align 4
  %27 = alloca ptr, align 8
  %28 = alloca ptr, align 8
  %29 = alloca ptr, align 8
  %30 = alloca i32, align 4
  %31 = alloca i32, align 4
  %32 = alloca i32, align 4
  %33 = alloca i32, align 4
  %34 = alloca i32, align 4
  %35 = alloca i32, align 4
  %36 = alloca i32, align 4
  %37 = alloca i32, align 4
  store ptr %0, ptr %21, align 8
  store ptr %1, ptr %22, align 8
  store i32 %2, ptr %23, align 4
  store i32 %3, ptr %24, align 4
  store i32 %4, ptr %25, align 4
  store i32 %5, ptr %26, align 4
  store ptr %6, ptr %27, align 8
  %38 = load ptr, ptr %21, align 8
  store ptr %38, ptr %20, align 8
  %39 = load ptr, ptr %20, align 8
  %40 = load ptr, ptr %39, align 8
  store ptr %40, ptr %28, align 8
  %41 = load ptr, ptr %22, align 8
  store ptr %41, ptr %19, align 8
  %42 = load ptr, ptr %19, align 8
  %43 = load ptr, ptr %42, align 8
  store ptr %43, ptr %29, align 8
  %44 = load i32, ptr %23, align 4
  %45 = load ptr, ptr %22, align 8
  %46 = getelementptr inbounds nuw %"class.ncnn::Mat", ptr %45, i32 0, i32 6
  %47 = load i32, ptr %46, align 4
  %48 = mul nsw i32 %44, %47
  store i32 %48, ptr %30, align 4
  %49 = load i32, ptr %24, align 4
  %50 = load ptr, ptr %22, align 8
  %51 = getelementptr inbounds nuw %"class.ncnn::Mat", ptr %50, i32 0, i32 6
  %52 = load i32, ptr %51, align 4
  %53 = mul nsw i32 %49, %52
  store i32 %53, ptr %31, align 4
  store i32 0, ptr %32, align 4
  br label %54

54:                                               ; preds = %66, %7
  %55 = load i32, ptr %32, align 4
  %56 = load i32, ptr %30, align 4
  %57 = icmp slt i32 %55, %56
  br i1 %57, label %58, label %69

58:                                               ; preds = %54
  %59 = load ptr, ptr %29, align 8
  %60 = load ptr, ptr %27, align 8
  %61 = load <8 x float>, ptr %60, align 32
  store ptr %59, ptr %9, align 8
  store <8 x float> %61, ptr %10, align 32
  %62 = load <8 x float>, ptr %10, align 32
  %63 = load ptr, ptr %9, align 8
  store <8 x float> %62, ptr %63, align 32
  %64 = load ptr, ptr %29, align 8
  %65 = getelementptr inbounds float, ptr %64, i64 8
  store ptr %65, ptr %29, align 8
  br label %66

66:                                               ; preds = %58
  %67 = load i32, ptr %32, align 4
  %68 = add nsw i32 %67, 1
  store i32 %68, ptr %32, align 4
  br label %54, !llvm.loop !71

69:                                               ; preds = %54
  store i32 0, ptr %33, align 4
  br label %70

70:                                               ; preds = %130, %69
  %71 = load i32, ptr %33, align 4
  %72 = load ptr, ptr %21, align 8
  %73 = getelementptr inbounds nuw %"class.ncnn::Mat", ptr %72, i32 0, i32 7
  %74 = load i32, ptr %73, align 8
  %75 = icmp slt i32 %71, %74
  br i1 %75, label %76, label %133

76:                                               ; preds = %70
  store i32 0, ptr %34, align 4
  br label %77

77:                                               ; preds = %89, %76
  %78 = load i32, ptr %34, align 4
  %79 = load i32, ptr %25, align 4
  %80 = icmp slt i32 %78, %79
  br i1 %80, label %81, label %92

81:                                               ; preds = %77
  %82 = load ptr, ptr %29, align 8
  %83 = load ptr, ptr %27, align 8
  %84 = load <8 x float>, ptr %83, align 32
  store ptr %82, ptr %11, align 8
  store <8 x float> %84, ptr %12, align 32
  %85 = load <8 x float>, ptr %12, align 32
  %86 = load ptr, ptr %11, align 8
  store <8 x float> %85, ptr %86, align 32
  %87 = load ptr, ptr %29, align 8
  %88 = getelementptr inbounds float, ptr %87, i64 8
  store ptr %88, ptr %29, align 8
  br label %89

89:                                               ; preds = %81
  %90 = load i32, ptr %34, align 4
  %91 = add nsw i32 %90, 1
  store i32 %91, ptr %34, align 4
  br label %77, !llvm.loop !72

92:                                               ; preds = %77
  store i32 0, ptr %35, align 4
  br label %93

93:                                               ; preds = %110, %92
  %94 = load i32, ptr %35, align 4
  %95 = load ptr, ptr %21, align 8
  %96 = getelementptr inbounds nuw %"class.ncnn::Mat", ptr %95, i32 0, i32 6
  %97 = load i32, ptr %96, align 4
  %98 = icmp slt i32 %94, %97
  br i1 %98, label %99, label %113

99:                                               ; preds = %93
  %100 = load ptr, ptr %29, align 8
  %101 = load ptr, ptr %28, align 8
  store ptr %101, ptr %8, align 8
  %102 = load ptr, ptr %8, align 8
  %103 = load <8 x float>, ptr %102, align 32
  store ptr %100, ptr %13, align 8
  store <8 x float> %103, ptr %14, align 32
  %104 = load <8 x float>, ptr %14, align 32
  %105 = load ptr, ptr %13, align 8
  store <8 x float> %104, ptr %105, align 32
  %106 = load ptr, ptr %28, align 8
  %107 = getelementptr inbounds float, ptr %106, i64 8
  store ptr %107, ptr %28, align 8
  %108 = load ptr, ptr %29, align 8
  %109 = getelementptr inbounds float, ptr %108, i64 8
  store ptr %109, ptr %29, align 8
  br label %110

110:                                              ; preds = %99
  %111 = load i32, ptr %35, align 4
  %112 = add nsw i32 %111, 1
  store i32 %112, ptr %35, align 4
  br label %93, !llvm.loop !73

113:                                              ; preds = %93
  store i32 0, ptr %36, align 4
  br label %114

114:                                              ; preds = %126, %113
  %115 = load i32, ptr %36, align 4
  %116 = load i32, ptr %26, align 4
  %117 = icmp slt i32 %115, %116
  br i1 %117, label %118, label %129

118:                                              ; preds = %114
  %119 = load ptr, ptr %29, align 8
  %120 = load ptr, ptr %27, align 8
  %121 = load <8 x float>, ptr %120, align 32
  store ptr %119, ptr %15, align 8
  store <8 x float> %121, ptr %16, align 32
  %122 = load <8 x float>, ptr %16, align 32
  %123 = load ptr, ptr %15, align 8
  store <8 x float> %122, ptr %123, align 32
  %124 = load ptr, ptr %29, align 8
  %125 = getelementptr inbounds float, ptr %124, i64 8
  store ptr %125, ptr %29, align 8
  br label %126

126:                                              ; preds = %118
  %127 = load i32, ptr %36, align 4
  %128 = add nsw i32 %127, 1
  store i32 %128, ptr %36, align 4
  br label %114, !llvm.loop !74

129:                                              ; preds = %114
  br label %130

130:                                              ; preds = %129
  %131 = load i32, ptr %33, align 4
  %132 = add nsw i32 %131, 1
  store i32 %132, ptr %33, align 4
  br label %70, !llvm.loop !75

133:                                              ; preds = %70
  store i32 0, ptr %37, align 4
  br label %134

134:                                              ; preds = %146, %133
  %135 = load i32, ptr %37, align 4
  %136 = load i32, ptr %31, align 4
  %137 = icmp slt i32 %135, %136
  br i1 %137, label %138, label %149

138:                                              ; preds = %134
  %139 = load ptr, ptr %29, align 8
  %140 = load ptr, ptr %27, align 8
  %141 = load <8 x float>, ptr %140, align 32
  store ptr %139, ptr %17, align 8
  store <8 x float> %141, ptr %18, align 32
  %142 = load <8 x float>, ptr %18, align 32
  %143 = load ptr, ptr %17, align 8
  store <8 x float> %142, ptr %143, align 32
  %144 = load ptr, ptr %29, align 8
  %145 = getelementptr inbounds float, ptr %144, i64 8
  store ptr %145, ptr %29, align 8
  br label %146

146:                                              ; preds = %138
  %147 = load i32, ptr %37, align 4
  %148 = add nsw i32 %147, 1
  store i32 %148, ptr %37, align 4
  br label %134, !llvm.loop !76

149:                                              ; preds = %134
  ret void
}